; Function Attrs: nounwind uwtable
define void @lv_file_explorer_open_dir(ptr noundef %0, ptr noundef %1) local_unnamed_addr #0 {
  %.not = icmp eq ptr %0, null
  br i1 %.not, label %.preheader, label %3

.preheader:                                       ; preds = %2, %.preheader
  br label %.preheader

3:                                                ; preds = %2
  tail call fastcc void @show_dir(ptr noundef nonnull %0, ptr noundef %1)
  ret void
}